; Function Attrs: mustprogress uwtable
define dso_local noundef zeroext i1 @_ZNK17ExpressionFuncall10compatibleEPK8Variable(ptr nocapture noundef nonnull readonly align 8 dereferenceable(32) %0, ptr noundef %1) unnamed_addr #3 align 2 {
  %3 = getelementptr inbounds i8, ptr %0, i64 24
  %4 = load ptr, ptr %3, align 8
  %5 = load ptr, ptr %4, align 8
  %6 = getelementptr inbounds i8, ptr %5, i64 56
  %7 = load ptr, ptr %6, align 8
  %8 = tail call noundef zeroext i1 %7(ptr noundef nonnull align 8 dereferenceable(56) %4, ptr noundef %1)
  ret i1 %8
}